(lp0
(dp1
S'name'
p2
S'1'
p3
sS'courseid'
p4
g3
sS'credits'
p5
g3
sS'branch'
p6
g3
sS'sem'
p7
g3
sS'type'
p8
g3
sa(dp9
S'name'
p10
S'8'
p11
sS'courseid'
p12
g11
sS'credits'
p13
g11
sS'branch'
p14
g11
sS'sem'
p15
g11
sS'type'
p16
g11
sa.