(lp0
(dp1
S'courseids'
p2
(lp3
I1
aI2
asS'type'
p4
S'UG'
p5
sS'branch'
p6
S'3'
p7
sa(dp8
S'courseids'
p9
(lp10
I4
aI5
asS'type'
p11
S'PG'
p12
sS'branch'
p13
S'3'
p14
sa(dp15
S'courseids'
p16
(lp17
I5
asS'type'
p18
S'5'
p19
sS'branch'
p20
g19
sa(dp21
S'courseids'
p22
(lp23
I8
aI9
aI101
asS'type'
p24
S'8'
p25
sS'branch'
p26
g25
sa.