(lp0
(dp1
S'name'
p2
S'99'
p3
sS'rollno'
p4
S'99'
p5
sS'dob'
p6
S'99'
p7
sS'sex'
p8
S'99'
p9
sS'branch'
p10
S'99'
p11
sS'address'
p12
S'99'
p13
sa(dp14
S'name'
p15
S'7'
p16
sS'rollno'
p17
g16
sS'dob'
p18
g16
sS'sex'
p19
g16
sS'branch'
p20
g16
sS'address'
p21
g16
sa(dp22
S'name'
p23
S'5'
p24
sS'rollno'
p25
g24
sS'dob'
p26
g24
sS'sex'
p27
g24
sS'branch'
p28
g24
sS'address'
p29
g24
sa.